; Function Attrs: mustprogress uwtable
define hidden noundef range(i64 1, 0) i64 @_ZN5boost9iostreams6detail20file_descriptor_impl4readEPcl(ptr nocapture noundef nonnull readonly align 4 dereferenceable(8) %0, ptr nocapture noundef %1, i64 noundef %2) local_unnamed_addr #3 align 2 personality ptr @__gxx_personality_v0 {
  %4 = alloca %"class.std::ios_base::failure", align 8
  %5 = tail call ptr @__errno_location() #30
  store i32 0, ptr %5, align 4, !tbaa !9
  %6 = load i32, ptr %0, align 4, !tbaa !3
  %7 = tail call i64 @read(i32 noundef %6, ptr noundef %1, i64 noundef %2)
  %8 = load i32, ptr %5, align 4, !tbaa !9
  %.not = icmp eq i32 %8, 0
  br i1 %.not, label %13, label %9

9:                                                ; preds = %3
  call void @llvm.lifetime.start.p0(i64 32, ptr nonnull %4) #28
  call void @_ZN5boost9iostreams6detail14system_failureB5cxx11EPKc(ptr dead_on_unwind nonnull writable sret(%"class.std::ios_base::failure") align 8 %4, ptr noundef nonnull @.str.3)
  invoke void @_ZN5boost15throw_exceptionINSt8ios_base7failureB5cxx11EEEvRKT_(ptr noundef nonnull align 8 dereferenceable(32) %4) #29
          to label %10 unwind label %11

10:                                               ; preds = %9
  unreachable

11:                                               ; preds = %9
  %12 = landingpad { ptr, i32 }
          cleanup
  call void @_ZNSt8ios_base7failureB5cxx11D1Ev(ptr noundef nonnull align 8 dereferenceable(32) %4) #28
  call void @llvm.lifetime.end.p0(i64 32, ptr nonnull %4) #28
  resume { ptr, i32 } %12

13:                                               ; preds = %3
  %14 = icmp eq i64 %7, 0
  %15 = select i1 %14, i64 -1, i64 %7
  ret i64 %15
}